target datalayout = "e-m:e-p270:32:32-p271:32:32-p272:64:64-i64:64-i128:128-f80:128-n8:16:32:64-S128"
target triple = "x86_64-pc-linux-gnu"

%struct.Vec_Int_t_ = type { i32, i32, ptr }
%struct.Gia_Man_t_ = type { ptr, ptr, i32, i32, i32, i32, ptr, ptr, i32, i32, i32, ptr, ptr, %struct.Vec_Int_t_, %struct.Vec_Int_t_, i32, i32, i32, %struct.Vec_Int_t_, ptr, ptr, ptr, i32, i32, i32, i32, ptr, ptr, ptr, ptr, ptr, i32, i32, ptr, i32, ptr, ptr, ptr, ptr, ptr, ptr, ptr, ptr, ptr, ptr, ptr, ptr, ptr, ptr, ptr, ptr, ptr, ptr, %struct.Vec_Int_t_, %struct.Vec_Int_t_, ptr, ptr, ptr, ptr, ptr, ptr, ptr, ptr, ptr, ptr, ptr, ptr, ptr, ptr, ptr, ptr, ptr, ptr, ptr, ptr, ptr, i32, float, float, ptr, ptr, i32, ptr, ptr, ptr, ptr, ptr, ptr, ptr, ptr, ptr, ptr, ptr, ptr, ptr, ptr, ptr, i64, i64, ptr, ptr, i32, i32, i32, i32, i32, i32, i32, i32, i32, i32, i32, i32, ptr, ptr, ptr, ptr, ptr, ptr, ptr, ptr, i32, i32, i32, ptr, i32, i32, ptr, ptr, ptr, ptr, ptr, ptr, i32, i32, ptr, %struct.Vec_Int_t_, %struct.Vec_Int_t_, %struct.Vec_Int_t_, ptr, ptr, ptr, i32, i32, i32, i32, ptr, ptr, ptr, ptr, ptr }
%struct.Cnf_Dat_t_ = type { ptr, i32, i32, i32, ptr, ptr, ptr, ptr, ptr, ptr }

; Function Attrs: inlinehint nounwind uwtable
define internal i32 @Abc_Lit2Var(i32 noundef %0) #1 {
  %2 = alloca i32, align 4
  store i32 %0, ptr %2, align 4, !tbaa !7
  %3 = load i32, ptr %2, align 4, !tbaa !7
  %4 = ashr i32 %3, 1
  ret i32 %4
}

; Function Attrs: inlinehint nounwind uwtable
define internal i32 @Vec_IntEntry(ptr noundef %0, i32 noundef %1) #1 {
  %3 = alloca ptr, align 8
  %4 = alloca i32, align 4
  store ptr %0, ptr %3, align 8, !tbaa !9
  store i32 %1, ptr %4, align 4, !tbaa !7
  %5 = load ptr, ptr %3, align 8, !tbaa !9
  %6 = getelementptr inbounds nuw %struct.Vec_Int_t_, ptr %5, i32 0, i32 2
  %7 = load ptr, ptr %6, align 8, !tbaa !20
  %8 = load i32, ptr %4, align 4, !tbaa !7
  %9 = sext i32 %8 to i64
  %10 = getelementptr inbounds i32, ptr %7, i64 %9
  %11 = load i32, ptr %10, align 4, !tbaa !7
  ret i32 %11
}

; Function Attrs: inlinehint nounwind uwtable
define internal ptr @Vec_IntReleaseArray(ptr noundef %0) #1 {
  %2 = alloca ptr, align 8
  %3 = alloca ptr, align 8
  store ptr %0, ptr %2, align 8, !tbaa !9
  call void @llvm.lifetime.start.p0(i64 8, ptr %3) #14
  %4 = load ptr, ptr %2, align 8, !tbaa !9
  %5 = getelementptr inbounds nuw %struct.Vec_Int_t_, ptr %4, i32 0, i32 2
  %6 = load ptr, ptr %5, align 8, !tbaa !20
  store ptr %6, ptr %3, align 8, !tbaa !27
  %7 = load ptr, ptr %2, align 8, !tbaa !9
  %8 = getelementptr inbounds nuw %struct.Vec_Int_t_, ptr %7, i32 0, i32 0
  store i32 0, ptr %8, align 8, !tbaa !19
  %9 = load ptr, ptr %2, align 8, !tbaa !9
  %10 = getelementptr inbounds nuw %struct.Vec_Int_t_, ptr %9, i32 0, i32 1
  store i32 0, ptr %10, align 4, !tbaa !16
  %11 = load ptr, ptr %2, align 8, !tbaa !9
  %12 = getelementptr inbounds nuw %struct.Vec_Int_t_, ptr %11, i32 0, i32 2
  store ptr null, ptr %12, align 8, !tbaa !20
  %13 = load ptr, ptr %3, align 8, !tbaa !27
  call void @llvm.lifetime.end.p0(i64 8, ptr %3) #14
  ret ptr %13
}

; Function Attrs: inlinehint nounwind uwtable
define internal i32 @Vec_IntSize(ptr noundef %0) #1 {
  %2 = alloca ptr, align 8
  store ptr %0, ptr %2, align 8, !tbaa !9
  %3 = load ptr, ptr %2, align 8, !tbaa !9
  %4 = getelementptr inbounds nuw %struct.Vec_Int_t_, ptr %3, i32 0, i32 1
  %5 = load i32, ptr %4, align 4, !tbaa !16
  ret i32 %5
}

; Function Attrs: inlinehint nounwind uwtable
define internal i32 @Gia_ManObjNum(ptr noundef %0) #1 {
  %2 = alloca ptr, align 8
  store ptr %0, ptr %2, align 8, !tbaa !21
  %3 = load ptr, ptr %2, align 8, !tbaa !21
  %4 = getelementptr inbounds nuw %struct.Gia_Man_t_, ptr %3, i32 0, i32 4
  %5 = load i32, ptr %4, align 8, !tbaa !28
  ret i32 %5
}

; Function Attrs: nounwind uwtable
define ptr @Jf_ManCreateCnf(ptr noundef %0, ptr noundef %1, ptr noundef %2) #0 {
  %4 = alloca ptr, align 8
  %5 = alloca ptr, align 8
  %6 = alloca ptr, align 8
  %7 = alloca ptr, align 8
  %8 = alloca i32, align 4
  %9 = alloca i32, align 4
  %10 = alloca i32, align 4
  store ptr %0, ptr %4, align 8, !tbaa !21
  store ptr %1, ptr %5, align 8, !tbaa !9
  store ptr %2, ptr %6, align 8, !tbaa !9
  call void @llvm.lifetime.start.p0(i64 8, ptr %7) #14
  call void @llvm.lifetime.start.p0(i64 4, ptr %8) #14
  call void @llvm.lifetime.start.p0(i64 4, ptr %9) #14
  call void @llvm.lifetime.start.p0(i64 4, ptr %10) #14
  %11 = call noalias ptr @calloc(i64 noundef 1, i64 noundef 72) #16
  store ptr %11, ptr %7, align 8, !tbaa !45
  %12 = load ptr, ptr %4, align 8, !tbaa !21
  %13 = load ptr, ptr %7, align 8, !tbaa !45
  %14 = getelementptr inbounds nuw %struct.Cnf_Dat_t_, ptr %13, i32 0, i32 0
  store ptr %12, ptr %14, align 8, !tbaa !47
  %15 = load ptr, ptr %4, align 8, !tbaa !21
  %16 = call i32 @Gia_ManObjNum(ptr noundef %15)
  %17 = load ptr, ptr %7, align 8, !tbaa !45
  %18 = getelementptr inbounds nuw %struct.Cnf_Dat_t_, ptr %17, i32 0, i32 1
  store i32 %16, ptr %18, align 8, !tbaa !51
  %19 = load ptr, ptr %5, align 8, !tbaa !9
  %20 = call i32 @Vec_IntSize(ptr noundef %19)
  %21 = load ptr, ptr %7, align 8, !tbaa !45
  %22 = getelementptr inbounds nuw %struct.Cnf_Dat_t_, ptr %21, i32 0, i32 2
  store i32 %20, ptr %22, align 4, !tbaa !52
  %23 = load ptr, ptr %6, align 8, !tbaa !9
  %24 = call i32 @Vec_IntSize(ptr noundef %23)
  %25 = load ptr, ptr %7, align 8, !tbaa !45
  %26 = getelementptr inbounds nuw %struct.Cnf_Dat_t_, ptr %25, i32 0, i32 3
  store i32 %24, ptr %26, align 8, !tbaa !53
  %27 = load ptr, ptr %7, align 8, !tbaa !45
  %28 = getelementptr inbounds nuw %struct.Cnf_Dat_t_, ptr %27, i32 0, i32 3
  %29 = load i32, ptr %28, align 8, !tbaa !53
  %30 = add nsw i32 %29, 1
  %31 = sext i32 %30 to i64
  %32 = mul i64 8, %31
  %33 = call noalias ptr @malloc(i64 noundef %32) #15
  %34 = load ptr, ptr %7, align 8, !tbaa !45
  %35 = getelementptr inbounds nuw %struct.Cnf_Dat_t_, ptr %34, i32 0, i32 4
  store ptr %33, ptr %35, align 8, !tbaa !54
  %36 = load ptr, ptr %5, align 8, !tbaa !9
  %37 = call ptr @Vec_IntReleaseArray(ptr noundef %36)
  %38 = load ptr, ptr %7, align 8, !tbaa !45
  %39 = getelementptr inbounds nuw %struct.Cnf_Dat_t_, ptr %38, i32 0, i32 4
  %40 = load ptr, ptr %39, align 8, !tbaa !54
  %41 = getelementptr inbounds ptr, ptr %40, i64 0
  store ptr %37, ptr %41, align 8, !tbaa !27
  store i32 0, ptr %8, align 4, !tbaa !7
  br label %42

42:                                               ; preds = %68, %3
  %43 = load i32, ptr %8, align 4, !tbaa !7
  %44 = load ptr, ptr %6, align 8, !tbaa !9
  %45 = call i32 @Vec_IntSize(ptr noundef %44)
  %46 = icmp slt i32 %43, %45
  br i1 %46, label %47, label %51

47:                                               ; preds = %42
  %48 = load ptr, ptr %6, align 8, !tbaa !9
  %49 = load i32, ptr %8, align 4, !tbaa !7
  %50 = call i32 @Vec_IntEntry(ptr noundef %48, i32 noundef %49)
  store i32 %50, ptr %9, align 4, !tbaa !7
  br label %51

51:                                               ; preds = %47, %42
  %52 = phi i1 [ false, %42 ], [ true, %47 ]
  br i1 %52, label %53, label %71

53:                                               ; preds = %51
  %54 = load ptr, ptr %7, align 8, !tbaa !45
  %55 = getelementptr inbounds nuw %struct.Cnf_Dat_t_, ptr %54, i32 0, i32 4
  %56 = load ptr, ptr %55, align 8, !tbaa !54
  %57 = getelementptr inbounds ptr, ptr %56, i64 0
  %58 = load ptr, ptr %57, align 8, !tbaa !27
  %59 = load i32, ptr %9, align 4, !tbaa !7
  %60 = sext i32 %59 to i64
  %61 = getelementptr inbounds i32, ptr %58, i64 %60
  %62 = load ptr, ptr %7, align 8, !tbaa !45
  %63 = getelementptr inbounds nuw %struct.Cnf_Dat_t_, ptr %62, i32 0, i32 4
  %64 = load ptr, ptr %63, align 8, !tbaa !54
  %65 = load i32, ptr %8, align 4, !tbaa !7
  %66 = sext i32 %65 to i64
  %67 = getelementptr inbounds ptr, ptr %64, i64 %66
  store ptr %61, ptr %67, align 8, !tbaa !27
  br label %68

68:                                               ; preds = %53
  %69 = load i32, ptr %8, align 4, !tbaa !7
  %70 = add nsw i32 %69, 1
  store i32 %70, ptr %8, align 4, !tbaa !7
  br label %42, !llvm.loop !60

71:                                               ; preds = %51
  %72 = load ptr, ptr %7, align 8, !tbaa !45
  %73 = getelementptr inbounds nuw %struct.Cnf_Dat_t_, ptr %72, i32 0, i32 4
  %74 = load ptr, ptr %73, align 8, !tbaa !54
  %75 = getelementptr inbounds ptr, ptr %74, i64 0
  %76 = load ptr, ptr %75, align 8, !tbaa !27
  %77 = load ptr, ptr %7, align 8, !tbaa !45
  %78 = getelementptr inbounds nuw %struct.Cnf_Dat_t_, ptr %77, i32 0, i32 2
  %79 = load i32, ptr %78, align 4, !tbaa !52
  %80 = sext i32 %79 to i64
  %81 = getelementptr inbounds i32, ptr %76, i64 %80
  %82 = load ptr, ptr %7, align 8, !tbaa !45
  %83 = getelementptr inbounds nuw %struct.Cnf_Dat_t_, ptr %82, i32 0, i32 4
  %84 = load ptr, ptr %83, align 8, !tbaa !54
  %85 = load i32, ptr %8, align 4, !tbaa !7
  %86 = sext i32 %85 to i64
  %87 = getelementptr inbounds ptr, ptr %84, i64 %86
  store ptr %81, ptr %87, align 8, !tbaa !27
  %88 = load ptr, ptr %4, align 8, !tbaa !21
  %89 = call i32 @Gia_ManObjNum(ptr noundef %88)
  %90 = sext i32 %89 to i64
  %91 = mul i64 4, %90
  %92 = call noalias ptr @malloc(i64 noundef %91) #15
  %93 = load ptr, ptr %4, align 8, !tbaa !21
  %94 = call i32 @Gia_ManObjNum(ptr noundef %93)
  %95 = sext i32 %94 to i64
  %96 = mul i64 4, %95
  call void @llvm.memset.p0.i64(ptr align 1 %92, i8 -1, i64 %96, i1 false)
  %97 = load ptr, ptr %7, align 8, !tbaa !45
  %98 = getelementptr inbounds nuw %struct.Cnf_Dat_t_, ptr %97, i32 0, i32 6
  store ptr %92, ptr %98, align 8, !tbaa !61
  %99 = load ptr, ptr %4, align 8, !tbaa !21
  %100 = call i32 @Gia_ManObjNum(ptr noundef %99)
  %101 = sext i32 %100 to i64
  %102 = mul i64 4, %101
  %103 = call noalias ptr @malloc(i64 noundef %102) #15
  %104 = load ptr, ptr %4, align 8, !tbaa !21
  %105 = call i32 @Gia_ManObjNum(ptr noundef %104)
  %106 = sext i32 %105 to i64
  %107 = mul i64 4, %106
  call void @llvm.memset.p0.i64(ptr align 1 %103, i8 -1, i64 %107, i1 false)
  %108 = load ptr, ptr %7, align 8, !tbaa !45
  %109 = getelementptr inbounds nuw %struct.Cnf_Dat_t_, ptr %108, i32 0, i32 7
  store ptr %103, ptr %109, align 8, !tbaa !62
  store i32 0, ptr %8, align 4, !tbaa !7
  br label %110

110:                                              ; preds = %159, %71
  %111 = load i32, ptr %8, align 4, !tbaa !7
  %112 = load ptr, ptr %7, align 8, !tbaa !45
  %113 = getelementptr inbounds nuw %struct.Cnf_Dat_t_, ptr %112, i32 0, i32 3
  %114 = load i32, ptr %113, align 8, !tbaa !53
  %115 = icmp slt i32 %111, %114
  br i1 %115, label %116, label %162

116:                                              ; preds = %110
  %117 = load ptr, ptr %7, align 8, !tbaa !45
  %118 = getelementptr inbounds nuw %struct.Cnf_Dat_t_, ptr %117, i32 0, i32 4
  %119 = load ptr, ptr %118, align 8, !tbaa !54
  %120 = load i32, ptr %8, align 4, !tbaa !7
  %121 = sext i32 %120 to i64
  %122 = getelementptr inbounds ptr, ptr %119, i64 %121
  %123 = load ptr, ptr %122, align 8, !tbaa !27
  %124 = getelementptr inbounds i32, ptr %123, i64 0
  %125 = load i32, ptr %124, align 4, !tbaa !7
  %126 = call i32 @Abc_Lit2Var(i32 noundef %125)
  store i32 %126, ptr %10, align 4, !tbaa !7
  %127 = load ptr, ptr %7, align 8, !tbaa !45
  %128 = getelementptr inbounds nuw %struct.Cnf_Dat_t_, ptr %127, i32 0, i32 6
  %129 = load ptr, ptr %128, align 8, !tbaa !61
  %130 = load i32, ptr %10, align 4, !tbaa !7
  %131 = sext i32 %130 to i64
  %132 = getelementptr inbounds i32, ptr %129, i64 %131
  %133 = load i32, ptr %132, align 4, !tbaa !7
  %134 = icmp eq i32 %133, -1
  br i1 %134, label %135, label %149

135:                                              ; preds = %116
  %136 = load i32, ptr %8, align 4, !tbaa !7
  %137 = load ptr, ptr %7, align 8, !tbaa !45
  %138 = getelementptr inbounds nuw %struct.Cnf_Dat_t_, ptr %137, i32 0, i32 6
  %139 = load ptr, ptr %138, align 8, !tbaa !61
  %140 = load i32, ptr %10, align 4, !tbaa !7
  %141 = sext i32 %140 to i64
  %142 = getelementptr inbounds i32, ptr %139, i64 %141
  store i32 %136, ptr %142, align 4, !tbaa !7
  %143 = load ptr, ptr %7, align 8, !tbaa !45
  %144 = getelementptr inbounds nuw %struct.Cnf_Dat_t_, ptr %143, i32 0, i32 7
  %145 = load ptr, ptr %144, align 8, !tbaa !62
  %146 = load i32, ptr %10, align 4, !tbaa !7
  %147 = sext i32 %146 to i64
  %148 = getelementptr inbounds i32, ptr %145, i64 %147
  store i32 1, ptr %148, align 4, !tbaa !7
  br label %158

149:                                              ; preds = %116
  %150 = load ptr, ptr %7, align 8, !tbaa !45
  %151 = getelementptr inbounds nuw %struct.Cnf_Dat_t_, ptr %150, i32 0, i32 7
  %152 = load ptr, ptr %151, align 8, !tbaa !62
  %153 = load i32, ptr %10, align 4, !tbaa !7
  %154 = sext i32 %153 to i64
  %155 = getelementptr inbounds i32, ptr %152, i64 %154
  %156 = load i32, ptr %155, align 4, !tbaa !7
  %157 = add nsw i32 %156, 1
  store i32 %157, ptr %155, align 4, !tbaa !7
  br label %158

158:                                              ; preds = %149, %135
  br label %159

159:                                              ; preds = %158
  %160 = load i32, ptr %8, align 4, !tbaa !7
  %161 = add nsw i32 %160, 1
  store i32 %161, ptr %8, align 4, !tbaa !7
  br label %110, !llvm.loop !63

162:                                              ; preds = %110
  %163 = load ptr, ptr %7, align 8, !tbaa !45
  call void @llvm.lifetime.end.p0(i64 4, ptr %10) #14
  call void @llvm.lifetime.end.p0(i64 4, ptr %9) #14
  call void @llvm.lifetime.end.p0(i64 4, ptr %8) #14
  call void @llvm.lifetime.end.p0(i64 8, ptr %7) #14
  ret ptr %163
}