; Function Attrs: nofree nounwind uwtable
define noalias noundef ptr @Jf_ManCreateCnf(ptr noundef %0, ptr noundef captures(none) initializes((0, 4)) %1, ptr noundef readonly captures(none) %2) local_unnamed_addr #6 {
  %4 = tail call noalias dereferenceable_or_null(72) ptr @calloc(i64 noundef 1, i64 noundef 72) #31
  store ptr %0, ptr %4, align 8, !tbaa !44
  %5 = getelementptr i8, ptr %0, i64 24
  %.val52 = load i32, ptr %5, align 8, !tbaa !41
  %6 = getelementptr inbounds nuw i8, ptr %4, i64 8
  store i32 %.val52, ptr %6, align 8, !tbaa !48
  %7 = getelementptr i8, ptr %1, i64 4
  %.val46 = load i32, ptr %7, align 4, !tbaa !7
  %8 = getelementptr inbounds nuw i8, ptr %4, i64 12
  store i32 %.val46, ptr %8, align 4, !tbaa !49
  %9 = getelementptr i8, ptr %2, i64 4
  %.val45 = load i32, ptr %9, align 4, !tbaa !7
  %10 = getelementptr inbounds nuw i8, ptr %4, i64 16
  store i32 %.val45, ptr %10, align 8, !tbaa !50
  %11 = add nsw i32 %.val45, 1
  %12 = sext i32 %11 to i64
  %13 = shl nsw i64 %12, 3
  %14 = tail call noalias ptr @malloc(i64 noundef %13) #29
  %15 = getelementptr inbounds nuw i8, ptr %4, i64 24
  store ptr %14, ptr %15, align 8, !tbaa !51
  %16 = getelementptr inbounds nuw i8, ptr %1, i64 8
  %17 = load ptr, ptr %16, align 8, !tbaa !13
  tail call void @llvm.memset.p0.i64(ptr noundef nonnull align 8 dereferenceable(16) %1, i8 0, i64 16, i1 false)
  store ptr %17, ptr %14, align 8, !tbaa !52
  %.val = load i32, ptr %9, align 4, !tbaa !7
  %18 = icmp sgt i32 %.val, 0
  br i1 %18, label %.lr.ph, label %.critedge

.lr.ph:                                           ; preds = %3
  %19 = getelementptr i8, ptr %2, i64 8
  %.val47 = load ptr, ptr %19, align 8, !tbaa !13
  %wide.trip.count = zext nneg i32 %.val to i64
  br label %20

20:                                               ; preds = %.lr.ph, %20
  %indvars.iv = phi i64 [ 0, %.lr.ph ], [ %indvars.iv.next, %20 ]
  %21 = getelementptr inbounds nuw i32, ptr %.val47, i64 %indvars.iv
  %22 = load i32, ptr %21, align 4, !tbaa !14
  %23 = load ptr, ptr %14, align 8, !tbaa !52
  %24 = sext i32 %22 to i64
  %25 = getelementptr inbounds i32, ptr %23, i64 %24
  %26 = getelementptr inbounds nuw ptr, ptr %14, i64 %indvars.iv
  store ptr %25, ptr %26, align 8, !tbaa !52
  %indvars.iv.next = add nuw nsw i64 %indvars.iv, 1
  %exitcond.not = icmp eq i64 %indvars.iv.next, %wide.trip.count
  br i1 %exitcond.not, label %.critedge.loopexit, label %20, !llvm.loop !55

.critedge.loopexit:                               ; preds = %20
  %.pre = load ptr, ptr %14, align 8, !tbaa !52
  %27 = zext nneg i32 %.val to i64
  br label %.critedge

.critedge:                                        ; preds = %3, %.critedge.loopexit
  %28 = phi ptr [ %.pre, %.critedge.loopexit ], [ %17, %3 ]
  %.0.lcssa = phi i64 [ %27, %.critedge.loopexit ], [ 0, %3 ]
  %29 = sext i32 %.val46 to i64
  %30 = getelementptr inbounds i32, ptr %28, i64 %29
  %31 = getelementptr inbounds nuw ptr, ptr %14, i64 %.0.lcssa
  store ptr %30, ptr %31, align 8, !tbaa !52
  %.val51 = load i32, ptr %5, align 8, !tbaa !41
  %32 = sext i32 %.val51 to i64
  %33 = shl nsw i64 %32, 2
  %34 = tail call noalias ptr @malloc(i64 noundef %33) #29
  tail call void @llvm.memset.p0.i64(ptr align 1 %34, i8 -1, i64 %33, i1 false)
  %35 = getelementptr inbounds nuw i8, ptr %4, i64 40
  store ptr %34, ptr %35, align 8, !tbaa !56
  %36 = tail call noalias ptr @malloc(i64 noundef %33) #29
  tail call void @llvm.memset.p0.i64(ptr align 1 %36, i8 -1, i64 %33, i1 false)
  %37 = getelementptr inbounds nuw i8, ptr %4, i64 48
  store ptr %36, ptr %37, align 8, !tbaa !57
  %38 = icmp sgt i32 %.val45, 0
  br i1 %38, label %.lr.ph55.preheader, label %._crit_edge

.lr.ph55.preheader:                               ; preds = %.critedge
  %wide.trip.count60 = zext nneg i32 %.val45 to i64
  br label %.lr.ph55

.lr.ph55:                                         ; preds = %.lr.ph55.preheader, %54
  %indvars.iv57 = phi i64 [ 0, %.lr.ph55.preheader ], [ %indvars.iv.next58, %54 ]
  %39 = getelementptr inbounds nuw ptr, ptr %14, i64 %indvars.iv57
  %40 = load ptr, ptr %39, align 8, !tbaa !52
  %41 = load i32, ptr %40, align 4, !tbaa !14
  %42 = ashr i32 %41, 1
  %43 = sext i32 %42 to i64
  %44 = getelementptr inbounds i32, ptr %34, i64 %43
  %45 = load i32, ptr %44, align 4, !tbaa !14
  %46 = icmp eq i32 %45, -1
  br i1 %46, label %47, label %50

47:                                               ; preds = %.lr.ph55
  %48 = trunc nuw nsw i64 %indvars.iv57 to i32
  store i32 %48, ptr %44, align 4, !tbaa !14
  %49 = getelementptr inbounds i32, ptr %36, i64 %43
  store i32 1, ptr %49, align 4, !tbaa !14
  br label %54

50:                                               ; preds = %.lr.ph55
  %51 = getelementptr inbounds i32, ptr %36, i64 %43
  %52 = load i32, ptr %51, align 4, !tbaa !14
  %53 = add nsw i32 %52, 1
  store i32 %53, ptr %51, align 4, !tbaa !14
  br label %54

54:                                               ; preds = %47, %50
  %indvars.iv.next58 = add nuw nsw i64 %indvars.iv57, 1
  %exitcond61.not = icmp eq i64 %indvars.iv.next58, %wide.trip.count60
  br i1 %exitcond61.not, label %._crit_edge, label %.lr.ph55, !llvm.loop !58

._crit_edge:                                      ; preds = %54, %.critedge
  ret ptr %4
}